; Function Attrs: null_pointer_is_valid sspstrong uwtable
define internal noundef zeroext i1 @netmon_seek_read(ptr noundef readonly captures(none) %0, i64 noundef %1, ptr noundef %2, ptr noundef %3, ptr noundef %4) #0 {
  %6 = getelementptr inbounds nuw i8, ptr %0, i64 8
  %7 = load ptr, ptr %6, align 8
  %8 = tail call i64 @file_seek(ptr noundef %7, i64 noundef %1, i32 noundef 0, ptr noundef %3)
  %9 = icmp eq i64 %8, -1
  br i1 %9, label %16, label %10

10:                                               ; preds = %5
  %11 = load ptr, ptr %6, align 8
  %12 = tail call fastcc i32 @netmon_process_record(ptr noundef %0, ptr noundef %11, ptr noundef %2, ptr noundef %3, ptr noundef %4)
  switch i32 %12, label %13 [
    i32 0, label %16
    i32 1, label %15
  ]

13:                                               ; preds = %10
  store i32 -13, ptr %3, align 4
  %14 = tail call noalias ptr @g_strdup(ptr noundef nonnull @.str.21)
  store ptr %14, ptr %4, align 8
  br label %16

15:                                               ; preds = %10
  br label %16

16:                                               ; preds = %10, %5, %15, %13
  %.0 = phi i1 [ false, %13 ], [ false, %15 ], [ false, %5 ], [ true, %10 ]
  ret i1 %.0
}